; Function Attrs: mustprogress nounwind uwtable
define hidden void @_ZN17G1SurvivorRegions15convert_to_edenEv(ptr noundef nonnull align 8 dereferenceable(32) %0) local_unnamed_addr #0 align 2 {
  %2 = load ptr, ptr %0, align 8
  %3 = load i32, ptr %2, align 4
  %.not7 = icmp eq i32 %3, 0
  br i1 %.not7, label %._crit_edge, label %.lr.ph

.lr.ph:                                           ; preds = %1
  %4 = getelementptr inbounds i8, ptr %2, i64 8
  br label %5

5:                                                ; preds = %.lr.ph, %5
  %indvars.iv = phi i64 [ 0, %.lr.ph ], [ %indvars.iv.next, %5 ]
  %6 = load ptr, ptr %4, align 8
  %7 = getelementptr inbounds ptr, ptr %6, i64 %indvars.iv
  %8 = load ptr, ptr %7, align 8
  tail call void @_ZN12G1HeapRegion15set_eden_pre_gcEv(ptr noundef nonnull align 8 dereferenceable(136) %8) #7
  %indvars.iv.next = add nuw nsw i64 %indvars.iv, 1
  %9 = load ptr, ptr %0, align 8
  %10 = load i32, ptr %9, align 4
  %11 = zext i32 %10 to i64
  %.not = icmp eq i64 %indvars.iv.next, %11
  br i1 %.not, label %._crit_edge, label %5, !llvm.loop !6

._crit_edge:                                      ; preds = %5, %1
  %.lcssa = phi ptr [ %2, %1 ], [ %9, %5 ]
  store i32 0, ptr %.lcssa, align 4
  %12 = getelementptr inbounds i8, ptr %0, i64 8
  store volatile i64 0, ptr %12, align 8
  %13 = getelementptr inbounds i8, ptr %0, i64 16
  tail call void @_ZN16G1RegionsOnNodes5clearEv(ptr noundef nonnull align 8 dereferenceable(16) %13) #7
  ret void
}